target datalayout = "e-m:e-p270:32:32-p271:32:32-p272:64:64-i64:64-i128:128-f80:128-n8:16:32:64-S128"
target triple = "x86_64-pc-linux-gnu"

%class.symbol = type { ptr }
%"class.std::__cxx11::basic_string" = type { %"struct.std::__cxx11::basic_string<char>::_Alloc_hider", i64, %union.anon }
%"struct.std::__cxx11::basic_string<char>::_Alloc_hider" = type { ptr }
%union.anon = type { i64, [8 x i8] }
%class.smt_renaming = type { %class.map, %class.map.0 }
%class.map = type { %class.table2map }
%class.table2map = type { %class.core_hashtable }
%class.core_hashtable = type <{ ptr, i32, i32, i32, [4 x i8] }>
%class.map.0 = type { %class.table2map.1 }
%class.table2map.1 = type { %class.core_hashtable.2 }
%class.core_hashtable.2 = type <{ ptr, i32, i32, i32, [4 x i8] }>
%class.ast_smt_pp = type <{ ptr, %class.ref_vector, %class.ref_vector, %class.symbol, %class.symbol, %class.symbol, %class.symbol, %class.symbol, %"class.std::__cxx11::basic_string", i32, [4 x i8], %"class.ast_smt_pp::is_declared", ptr, i8, [7 x i8] }>
%class.ref_vector = type { %class.ref_vector_core }
%class.ref_vector_core = type { %class.ref_manager_wrapper, %class.ptr_vector }
%class.ref_manager_wrapper = type { ptr }
%class.ptr_vector = type { %class.vector }
%class.vector = type { ptr }
%"class.ast_smt_pp::is_declared" = type { ptr }
%class.ptr_vector.36 = type { %class.vector.37 }
%class.vector.37 = type { ptr }
%class.smt_printer = type { ptr, ptr, ptr, ptr, i32, i32, ptr, %class.ptr_vector, %class.ast_mark, i32, %class.arith_util, %class.bv_util, %class.seq_util, %class.fpa_util, i32, i32, i32, i32, i32, i32, i32, %class.symbol, %class.symbol, i8, i8, ptr }
%class.ast_mark = type { ptr, %class.obj_mark, %class.obj_mark.38 }
%class.obj_mark = type { [8 x i8], %class.bit_vector }
%class.bit_vector = type { i32, i32, ptr }
%class.obj_mark.38 = type { [8 x i8], %class.bit_vector }
%class.arith_util = type { ptr, ptr }
%class.bv_util = type { %class.bv_recognizers, ptr, ptr }
%class.bv_recognizers = type { i32 }
%class.seq_util = type { ptr, ptr, ptr, i32, [4 x i8], %"class.seq_util::str", %"class.seq_util::rex" }
%"class.seq_util::str" = type <{ ptr, ptr, i32, [4 x i8] }>
%"class.seq_util::rex" = type { ptr, ptr, i32, %class.vector.39, %class.ref_vector, %"struct.seq_util::rex::info", %"struct.seq_util::rex::info" }
%class.vector.39 = type { ptr }
%"struct.seq_util::rex::info" = type { i32, i8, i32, i32 }
%class.fpa_util = type { ptr, ptr, i32, %class.arith_util, %class.bv_util }
%class.ast = type { i32, i32, i32, i32 }

@_ZN12smt_renamingC1Ev = hidden unnamed_addr alias void (ptr), ptr @_ZN12smt_renamingC2Ev

; Function Attrs: mustprogress nounwind uwtable
define linkonce_odr hidden noundef i32 @_ZNK3ast8get_kindEv(ptr noundef nonnull align 4 dereferenceable(16) %0) #6 comdat align 2 {
  %2 = alloca ptr, align 8
  store ptr %0, ptr %2, align 8, !tbaa !145
  %3 = load ptr, ptr %2, align 8
  %4 = getelementptr inbounds nuw %class.ast, ptr %3, i32 0, i32 1
  %5 = load i32, ptr %4, align 4
  %6 = and i32 %5, 65535
  ret i32 %6
}

; Function Attrs: inlinehint mustprogress nounwind uwtable
define linkonce_odr hidden noundef zeroext i1 @_Z7is_declPK3ast(ptr noundef %0) #10 comdat {
  %2 = alloca ptr, align 8
  %3 = alloca i32, align 4
  store ptr %0, ptr %2, align 8, !tbaa !145
  call void @llvm.lifetime.start.p0(i64 4, ptr %3) #3
  %4 = load ptr, ptr %2, align 8, !tbaa !145
  %5 = call noundef i32 @_ZNK3ast8get_kindEv(ptr noundef nonnull align 4 dereferenceable(16) %4)
  store i32 %5, ptr %3, align 4, !tbaa !497
  %6 = load i32, ptr %3, align 4, !tbaa !497
  %7 = icmp eq i32 %6, 4
  br i1 %7, label %11, label %8

8:                                                ; preds = %1
  %9 = load i32, ptr %3, align 4, !tbaa !497
  %10 = icmp eq i32 %9, 3
  br label %11

11:                                               ; preds = %8, %1
  %12 = phi i1 [ true, %1 ], [ %10, %8 ]
  call void @llvm.lifetime.end.p0(i64 4, ptr %3) #3
  ret i1 %12
}

; Function Attrs: mustprogress nounwind uwtable
define linkonce_odr hidden void @_ZN6vectorIP10quantifierLb0EjEC2Ev(ptr noundef nonnull align 8 dereferenceable(8) %0) unnamed_addr #6 comdat align 2 {
  %2 = alloca ptr, align 8
  store ptr %0, ptr %2, align 8, !tbaa !143
  %3 = load ptr, ptr %2, align 8
  %4 = getelementptr inbounds nuw %class.vector.37, ptr %3, i32 0, i32 0
  store ptr null, ptr %4, align 8, !tbaa !286
  ret void
}

; Function Attrs: inlinehint mustprogress nounwind uwtable
define linkonce_odr hidden noundef ptr @_Z7to_sortP3ast(ptr noundef %0) #10 comdat {
  %2 = alloca ptr, align 8
  store ptr %0, ptr %2, align 8, !tbaa !145
  %3 = load ptr, ptr %2, align 8, !tbaa !145
  ret ptr %3
}

; Function Attrs: inlinehint mustprogress nounwind uwtable
define linkonce_odr hidden noundef ptr @_Z12to_func_declP3ast(ptr noundef %0) #10 comdat {
  %2 = alloca ptr, align 8
  store ptr %0, ptr %2, align 8, !tbaa !145
  %3 = load ptr, ptr %2, align 8, !tbaa !145
  ret ptr %3
}

; Function Attrs: inlinehint mustprogress nounwind uwtable
define linkonce_odr hidden noundef zeroext i1 @_Z12is_func_declPK3ast(ptr noundef %0) #10 comdat {
  %2 = alloca ptr, align 8
  store ptr %0, ptr %2, align 8, !tbaa !145
  %3 = load ptr, ptr %2, align 8, !tbaa !145
  %4 = call noundef i32 @_ZNK3ast8get_kindEv(ptr noundef nonnull align 4 dereferenceable(16) %3)
  %5 = icmp eq i32 %4, 4
  ret i1 %5
}

; Function Attrs: inlinehint mustprogress nounwind uwtable
define linkonce_odr hidden noundef ptr @_Z7to_exprP3ast(ptr noundef %0) #10 comdat {
  %2 = alloca ptr, align 8
  store ptr %0, ptr %2, align 8, !tbaa !145
  %3 = load ptr, ptr %2, align 8, !tbaa !145
  ret ptr %3
}

; Function Attrs: inlinehint mustprogress uwtable
define linkonce_odr hidden noundef zeroext i1 @_Z7is_exprPK3ast(ptr noundef %0) #8 comdat {
  %2 = alloca ptr, align 8
  store ptr %0, ptr %2, align 8, !tbaa !145
  %3 = load ptr, ptr %2, align 8, !tbaa !145
  %4 = call noundef zeroext i1 @_Z7is_declPK3ast(ptr noundef %3)
  %5 = xor i1 %4, true
  ret i1 %5
}

; Function Attrs: mustprogress nounwind uwtable
define linkonce_odr hidden void @_ZN10ptr_vectorI10quantifierEC2Ev(ptr noundef nonnull align 8 dereferenceable(8) %0) unnamed_addr #6 comdat align 2 {
  %2 = alloca ptr, align 8
  store ptr %0, ptr %2, align 8, !tbaa !88
  %3 = load ptr, ptr %2, align 8
  call void @_ZN6vectorIP10quantifierLb0EjEC2Ev(ptr noundef nonnull align 8 dereferenceable(8) %3) #3
  ret void
}

; Function Attrs: mustprogress uwtable
define hidden void @_ZN10ast_smt_pp16display_ast_smt2ERSoP3astjjPKPKc(ptr noundef nonnull align 8 dereferenceable(137) %0, ptr noundef nonnull align 8 dereferenceable(8) %1, ptr noundef %2, i32 noundef %3, i32 noundef %4, ptr noundef %5) #4 align 2 personality ptr @__gxx_personality_v0 {
  %7 = alloca ptr, align 8
  %8 = alloca ptr, align 8
  %9 = alloca ptr, align 8
  %10 = alloca i32, align 4
  %11 = alloca i32, align 4
  %12 = alloca ptr, align 8
  %13 = alloca %class.ptr_vector.36, align 8
  %14 = alloca %class.smt_renaming, align 8
  %15 = alloca ptr, align 8
  %16 = alloca i32, align 4
  %17 = alloca %class.smt_printer, align 8
  %18 = alloca %class.symbol, align 8
  store ptr %0, ptr %7, align 8, !tbaa !58
  store ptr %1, ptr %8, align 8, !tbaa !25
  store ptr %2, ptr %9, align 8, !tbaa !145
  store i32 %3, ptr %10, align 4, !tbaa !8
  store i32 %4, ptr %11, align 4, !tbaa !8
  store ptr %5, ptr %12, align 8, !tbaa !85
  %19 = load ptr, ptr %7, align 8
  call void @llvm.lifetime.start.p0(i64 8, ptr %13) #3
  call void @_ZN10ptr_vectorI10quantifierEC2Ev(ptr noundef nonnull align 8 dereferenceable(8) %13) #3
  call void @llvm.lifetime.start.p0(i64 48, ptr %14) #3
  invoke void @_ZN12smt_renamingC1Ev(ptr noundef nonnull align 8 dereferenceable(48) %14)
          to label %20 unwind label %42

20:                                               ; preds = %6
  call void @llvm.lifetime.start.p0(i64 424, ptr %17) #3
  %21 = load ptr, ptr %8, align 8, !tbaa !25
  %22 = getelementptr inbounds nuw %class.ast_smt_pp, ptr %19, i32 0, i32 0
  %23 = load ptr, ptr %22, align 8, !tbaa !87
  %24 = getelementptr inbounds nuw %class.ast_smt_pp, ptr %19, i32 0, i32 7
  call void @llvm.memcpy.p0.p0.i64(ptr align 8 %18, ptr align 8 %24, i64 8, i1 false), !tbaa.struct !13
  %25 = getelementptr inbounds nuw %class.ast_smt_pp, ptr %19, i32 0, i32 13
  %26 = load i8, ptr %25, align 8, !tbaa !77, !range !46, !noundef !47
  %27 = trunc i8 %26 to i1
  %28 = load i32, ptr %10, align 4, !tbaa !8
  %29 = load i32, ptr %11, align 4, !tbaa !8
  %30 = load ptr, ptr %12, align 8, !tbaa !85
  %31 = getelementptr inbounds nuw %class.symbol, ptr %18, i32 0, i32 0
  %32 = load ptr, ptr %31, align 8
  invoke void @_ZN11smt_printerC2ERSoR11ast_managerR10ptr_vectorI10quantifierER12smt_renaming6symbolbbjjPKPKc(ptr noundef nonnull align 8 dereferenceable(424) %17, ptr noundef nonnull align 8 dereferenceable(8) %21, ptr noundef nonnull align 8 dereferenceable(976) %23, ptr noundef nonnull align 8 dereferenceable(8) %13, ptr noundef nonnull align 8 dereferenceable(48) %14, ptr %32, i1 noundef zeroext false, i1 noundef zeroext %27, i32 noundef %28, i32 noundef %29, ptr noundef %30)
          to label %33 unwind label %46

33:                                               ; preds = %20
  %34 = load ptr, ptr %9, align 8, !tbaa !145
  %35 = invoke noundef zeroext i1 @_Z7is_exprPK3ast(ptr noundef %34)
          to label %36 unwind label %50

36:                                               ; preds = %33
  br i1 %35, label %37, label %54

37:                                               ; preds = %36
  %38 = load ptr, ptr %9, align 8, !tbaa !145
  %39 = invoke noundef ptr @_Z7to_exprP3ast(ptr noundef %38)
          to label %40 unwind label %50

40:                                               ; preds = %37
  invoke void @_ZN11smt_printerclEP4expr(ptr noundef nonnull align 8 dereferenceable(424) %17, ptr noundef %39)
          to label %41 unwind label %50

41:                                               ; preds = %40
  br label %69

42:                                               ; preds = %6
  %43 = landingpad { ptr, i32 }
          cleanup
  %44 = extractvalue { ptr, i32 } %43, 0
  store ptr %44, ptr %15, align 8
  %45 = extractvalue { ptr, i32 } %43, 1
  store i32 %45, ptr %16, align 4
  br label %71

46:                                               ; preds = %20
  %47 = landingpad { ptr, i32 }
          cleanup
  %48 = extractvalue { ptr, i32 } %47, 0
  store ptr %48, ptr %15, align 8
  %49 = extractvalue { ptr, i32 } %47, 1
  store i32 %49, ptr %16, align 4
  br label %70

50:                                               ; preds = %66, %63, %61, %58, %54, %40, %37, %33
  %51 = landingpad { ptr, i32 }
          cleanup
  %52 = extractvalue { ptr, i32 } %51, 0
  store ptr %52, ptr %15, align 8
  %53 = extractvalue { ptr, i32 } %51, 1
  store i32 %53, ptr %16, align 4
  call void @_ZN11smt_printerD2Ev(ptr noundef nonnull align 8 dereferenceable(424) %17) #3
  br label %70

54:                                               ; preds = %36
  %55 = load ptr, ptr %9, align 8, !tbaa !145
  %56 = invoke noundef zeroext i1 @_Z12is_func_declPK3ast(ptr noundef %55)
          to label %57 unwind label %50

57:                                               ; preds = %54
  br i1 %56, label %58, label %63

58:                                               ; preds = %57
  %59 = load ptr, ptr %9, align 8, !tbaa !145
  %60 = invoke noundef ptr @_Z12to_func_declP3ast(ptr noundef %59)
          to label %61 unwind label %50

61:                                               ; preds = %58
  invoke void @_ZN11smt_printerclEP9func_decl(ptr noundef nonnull align 8 dereferenceable(424) %17, ptr noundef %60)
          to label %62 unwind label %50

62:                                               ; preds = %61
  br label %68

63:                                               ; preds = %57
  %64 = load ptr, ptr %9, align 8, !tbaa !145
  %65 = invoke noundef ptr @_Z7to_sortP3ast(ptr noundef %64)
          to label %66 unwind label %50

66:                                               ; preds = %63
  invoke void @_ZN11smt_printerclEP4sort(ptr noundef nonnull align 8 dereferenceable(424) %17, ptr noundef %65)
          to label %67 unwind label %50

67:                                               ; preds = %66
  br label %68

68:                                               ; preds = %67, %62
  br label %69

69:                                               ; preds = %68, %41
  call void @_ZN11smt_printerD2Ev(ptr noundef nonnull align 8 dereferenceable(424) %17) #3
  call void @llvm.lifetime.end.p0(i64 424, ptr %17) #3
  call void @_ZN12smt_renamingD2Ev(ptr noundef nonnull align 8 dereferenceable(48) %14) #3
  call void @llvm.lifetime.end.p0(i64 48, ptr %14) #3
  call void @_ZN6vectorIP10quantifierLb0EjED2Ev(ptr noundef nonnull align 8 dereferenceable(8) %13) #3
  call void @llvm.lifetime.end.p0(i64 8, ptr %13) #3
  ret void

70:                                               ; preds = %50, %46
  call void @llvm.lifetime.end.p0(i64 424, ptr %17) #3
  call void @_ZN12smt_renamingD2Ev(ptr noundef nonnull align 8 dereferenceable(48) %14) #3
  br label %71

71:                                               ; preds = %70, %42
  call void @llvm.lifetime.end.p0(i64 48, ptr %14) #3
  call void @_ZN6vectorIP10quantifierLb0EjED2Ev(ptr noundef nonnull align 8 dereferenceable(8) %13) #3
  call void @llvm.lifetime.end.p0(i64 8, ptr %13) #3
  br label %72

72:                                               ; preds = %71
  %73 = load ptr, ptr %15, align 8
  %74 = load i32, ptr %16, align 4
  %75 = insertvalue { ptr, i32 } poison, ptr %73, 0
  %76 = insertvalue { ptr, i32 } %75, i32 %74, 1
  resume { ptr, i32 } %76
}