; Function Attrs: mustprogress uwtable
define hidden void @_ZN10ast_smt_pp16display_ast_smt2ERSoP3astjjPKPKc(ptr noundef nonnull readonly align 8 captures(none) dereferenceable(137) %0, ptr noundef nonnull align 8 dereferenceable(8) %1, ptr noundef %2, i32 noundef %3, i32 noundef %4, ptr noundef %5) local_unnamed_addr #3 align 2 personality ptr @__gxx_personality_v0 {
  %7 = alloca %class.ptr_vector.36, align 8
  %8 = alloca %class.smt_renaming, align 8
  %9 = alloca %class.smt_printer, align 8
  call void @llvm.lifetime.start.p0(i64 8, ptr nonnull %7) #24
  store ptr null, ptr %7, align 8, !tbaa !100
  call void @llvm.lifetime.start.p0(i64 48, ptr nonnull %8) #24
  invoke void @_ZN12smt_renamingC2Ev(ptr noundef nonnull align 8 dereferenceable(48) %8)
          to label %10 unwind label %23

10:                                               ; preds = %6
  call void @llvm.lifetime.start.p0(i64 424, ptr nonnull %9) #24
  %11 = load ptr, ptr %0, align 8, !tbaa !109
  %12 = getelementptr inbounds nuw i8, ptr %0, i64 72
  %.sroa.0.0.copyload = load ptr, ptr %12, align 8, !tbaa !6
  %13 = getelementptr inbounds nuw i8, ptr %0, i64 136
  %14 = load i8, ptr %13, align 8, !tbaa !92, !range !110, !noundef !111
  %15 = trunc nuw i8 %14 to i1
  invoke void @_ZN11smt_printerC2ERSoR11ast_managerR10ptr_vectorI10quantifierER12smt_renaming6symbolbbjjPKPKc(ptr noundef nonnull align 8 dereferenceable(424) %9, ptr noundef nonnull align 8 dereferenceable(8) %1, ptr noundef nonnull align 8 dereferenceable(976) %11, ptr noundef nonnull align 8 dereferenceable(8) %7, ptr noundef nonnull align 8 dereferenceable(48) %8, ptr %.sroa.0.0.copyload, i1 noundef zeroext false, i1 noundef zeroext %15, i32 noundef %3, i32 noundef %4, ptr noundef %5)
          to label %16 unwind label %25

16:                                               ; preds = %10
  %17 = getelementptr inbounds nuw i8, ptr %2, i64 4
  %18 = load i32, ptr %17, align 4
  %19 = and i32 %18, 65535
  %20 = add nsw i32 %19, -5
  %21 = icmp ult i32 %20, -2
  br i1 %21, label %22, label %29

22:                                               ; preds = %16
  invoke void @_ZN11smt_printerclEP4expr(ptr noundef nonnull align 8 dereferenceable(424) %9, ptr noundef nonnull %2)
          to label %33 unwind label %27

23:                                               ; preds = %6
  %24 = landingpad { ptr, i32 }
          cleanup
  br label %54

25:                                               ; preds = %10
  %26 = landingpad { ptr, i32 }
          cleanup
  br label %53

27:                                               ; preds = %32, %31, %22
  %28 = landingpad { ptr, i32 }
          cleanup
  call void @_ZN11smt_printerD2Ev(ptr noundef nonnull align 8 dereferenceable(424) %9) #24
  br label %53

29:                                               ; preds = %16
  %30 = icmp eq i32 %19, 4
  br i1 %30, label %31, label %32

31:                                               ; preds = %29
  invoke void @_ZN11smt_printerclEP9func_decl(ptr noundef nonnull align 8 dereferenceable(424) %9, ptr noundef nonnull %2)
          to label %33 unwind label %27

32:                                               ; preds = %29
  invoke void @_ZN11smt_printerclEP4sort(ptr noundef nonnull align 8 dereferenceable(424) %9, ptr noundef nonnull %2)
          to label %33 unwind label %27

33:                                               ; preds = %31, %32, %22
  call void @_ZN11smt_printerD2Ev(ptr noundef nonnull align 8 dereferenceable(424) %9) #24
  call void @llvm.lifetime.end.p0(i64 424, ptr nonnull %9) #24
  %34 = getelementptr inbounds nuw i8, ptr %8, i64 24
  %35 = load ptr, ptr %34, align 8, !tbaa !50
  %36 = icmp eq ptr %35, null
  br i1 %36, label %_ZN9table2mapI17default_map_entryI6symbolS1_E16symbol_hash_proc14symbol_eq_procED2Ev.exit.i, label %37

37:                                               ; preds = %33
  invoke void @_ZN6memory10deallocateEPv(ptr noundef nonnull %35)
          to label %_ZN9table2mapI17default_map_entryI6symbolS1_E16symbol_hash_proc14symbol_eq_procED2Ev.exit.i unwind label %38

38:                                               ; preds = %37
  %39 = landingpad { ptr, i32 }
          catch ptr null
  %40 = extractvalue { ptr, i32 } %39, 0
  call void @__clang_call_terminate(ptr %40) #27
  unreachable

_ZN9table2mapI17default_map_entryI6symbolS1_E16symbol_hash_proc14symbol_eq_procED2Ev.exit.i: ; preds = %37, %33
  store ptr null, ptr %34, align 8, !tbaa !50
  %41 = load ptr, ptr %8, align 8, !tbaa !43
  %42 = icmp eq ptr %41, null
  br i1 %42, label %_ZN12smt_renamingD2Ev.exit, label %43

43:                                               ; preds = %_ZN9table2mapI17default_map_entryI6symbolS1_E16symbol_hash_proc14symbol_eq_procED2Ev.exit.i
  invoke void @_ZN6memory10deallocateEPv(ptr noundef nonnull %41)
          to label %_ZN12smt_renamingD2Ev.exit unwind label %44

44:                                               ; preds = %43
  %45 = landingpad { ptr, i32 }
          catch ptr null
  %46 = extractvalue { ptr, i32 } %45, 0
  call void @__clang_call_terminate(ptr %46) #27
  unreachable

_ZN12smt_renamingD2Ev.exit:                       ; preds = %_ZN9table2mapI17default_map_entryI6symbolS1_E16symbol_hash_proc14symbol_eq_procED2Ev.exit.i, %43
  call void @llvm.lifetime.end.p0(i64 48, ptr nonnull %8) #24
  %47 = load ptr, ptr %7, align 8, !tbaa !100
  %.not.i.i = icmp eq ptr %47, null
  br i1 %.not.i.i, label %_ZN6vectorIP10quantifierLb0EjED2Ev.exit, label %48

48:                                               ; preds = %_ZN12smt_renamingD2Ev.exit
  %49 = getelementptr inbounds i8, ptr %47, i64 -8
  invoke void @_ZN6memory10deallocateEPv(ptr noundef nonnull %49)
          to label %_ZN6vectorIP10quantifierLb0EjED2Ev.exit unwind label %50

50:                                               ; preds = %48
  %51 = landingpad { ptr, i32 }
          catch ptr null
  %52 = extractvalue { ptr, i32 } %51, 0
  call void @__clang_call_terminate(ptr %52) #27
  unreachable

_ZN6vectorIP10quantifierLb0EjED2Ev.exit:          ; preds = %_ZN12smt_renamingD2Ev.exit, %48
  call void @llvm.lifetime.end.p0(i64 8, ptr nonnull %7) #24
  ret void

53:                                               ; preds = %27, %25
  %.pn = phi { ptr, i32 } [ %28, %27 ], [ %26, %25 ]
  call void @llvm.lifetime.end.p0(i64 424, ptr nonnull %9) #24
  call void @_ZN12smt_renamingD2Ev(ptr noundef nonnull align 8 dereferenceable(48) %8) #24
  br label %54

54:                                               ; preds = %53, %23
  %.pn.pn = phi { ptr, i32 } [ %.pn, %53 ], [ %24, %23 ]
  call void @llvm.lifetime.end.p0(i64 48, ptr nonnull %8) #24
  call void @_ZN6vectorIP10quantifierLb0EjED2Ev(ptr noundef nonnull align 8 dereferenceable(8) %7) #24
  call void @llvm.lifetime.end.p0(i64 8, ptr nonnull %7) #24
  resume { ptr, i32 } %.pn.pn
}